; Function Attrs: nounwind uwtable
define void @Cec_GiaPrintCofStats2(ptr noundef %0) local_unnamed_addr #0 {
  %2 = tail call i32 @Gia_ManLevelNum(ptr noundef %0) #18
  tail call void @Gia_ManCreateRefs(ptr noundef %0) #18
  %3 = getelementptr i8, ptr %0, i64 32
  %4 = getelementptr i8, ptr %0, i64 16
  %5 = getelementptr i8, ptr %0, i64 64
  %.val1925 = load i32, ptr %4, align 8, !tbaa !34
  %.val2026 = load ptr, ptr %5, align 8, !tbaa !35
  %6 = getelementptr i8, ptr %.val2026, i64 4
  %.val20.val27 = load i32, ptr %6, align 4, !tbaa !36
  %7 = icmp sgt i32 %.val20.val27, %.val1925
  br i1 %7, label %.lr.ph, label %.critedge

.lr.ph:                                           ; preds = %1
  %8 = getelementptr i8, ptr %0, i64 144
  br label %9

9:                                                ; preds = %.lr.ph, %10
  %indvars.iv = phi i64 [ 0, %.lr.ph ], [ %indvars.iv.next, %10 ]
  %.val2029 = phi ptr [ %.val2026, %.lr.ph ], [ %.val20, %10 ]
  %.val21 = load ptr, ptr %3, align 8, !tbaa !29
  %.not = icmp eq ptr %.val21, null
  br i1 %.not, label %.critedge, label %10

10:                                               ; preds = %9
  %11 = getelementptr i8, ptr %.val2029, i64 8
  %.val22.val = load ptr, ptr %11, align 8, !tbaa !38
  %12 = getelementptr inbounds nuw i32, ptr %.val22.val, i64 %indvars.iv
  %13 = load i32, ptr %12, align 4, !tbaa !30
  %14 = sext i32 %13 to i64
  %15 = getelementptr inbounds %struct.Gia_Obj_t_, ptr %.val21, i64 %14
  %16 = trunc nuw nsw i64 %indvars.iv to i32
  %17 = tail call ptr @Gia_ManDupCofactorVar(ptr noundef nonnull %0, i32 noundef %16, i32 noundef 0) #18
  %18 = tail call ptr @Gia_ManDupCofactorVar(ptr noundef nonnull %0, i32 noundef %16, i32 noundef 1) #18
  %19 = tail call i32 (ptr, ...) @printf(ptr noundef nonnull dereferenceable(1) @.str.32, i32 noundef %16)
  %.val = load ptr, ptr %3, align 8, !tbaa !29
  %.val18 = load ptr, ptr %8, align 8, !tbaa !3
  %20 = ptrtoint ptr %15 to i64
  %21 = ptrtoint ptr %.val to i64
  %22 = sub i64 %20, %21
  %23 = sdiv exact i64 %22, 12
  %sext.i = shl i64 %23, 32
  %24 = ashr exact i64 %sext.i, 30
  %25 = getelementptr inbounds i8, ptr %.val18, i64 %24
  %26 = load i32, ptr %25, align 4, !tbaa !30
  %27 = tail call i32 (ptr, ...) @printf(ptr noundef nonnull dereferenceable(1) @.str.33, i32 noundef %26)
  %28 = getelementptr inbounds nuw i8, ptr %17, i64 24
  %29 = load i32, ptr %28, align 8, !tbaa !28
  %30 = getelementptr inbounds nuw i8, ptr %17, i64 64
  %31 = load ptr, ptr %30, align 8, !tbaa !35
  %32 = getelementptr i8, ptr %31, i64 4
  %.val3.i = load i32, ptr %32, align 4, !tbaa !36
  %33 = getelementptr inbounds nuw i8, ptr %17, i64 72
  %34 = load ptr, ptr %33, align 8, !tbaa !41
  %35 = getelementptr i8, ptr %34, i64 4
  %.val.i = load i32, ptr %35, align 4, !tbaa !36
  %36 = add i32 %.val.i, %.val3.i
  %37 = xor i32 %36, -1
  %38 = add i32 %29, %37
  %39 = tail call i32 (ptr, ...) @printf(ptr noundef nonnull dereferenceable(1) @.str.30, i32 noundef %38)
  %40 = getelementptr inbounds nuw i8, ptr %18, i64 24
  %41 = load i32, ptr %40, align 8, !tbaa !28
  %42 = getelementptr inbounds nuw i8, ptr %18, i64 64
  %43 = load ptr, ptr %42, align 8, !tbaa !35
  %44 = getelementptr i8, ptr %43, i64 4
  %.val3.i23 = load i32, ptr %44, align 4, !tbaa !36
  %45 = getelementptr inbounds nuw i8, ptr %18, i64 72
  %46 = load ptr, ptr %45, align 8, !tbaa !41
  %47 = getelementptr i8, ptr %46, i64 4
  %.val.i24 = load i32, ptr %47, align 4, !tbaa !36
  %48 = add i32 %.val.i24, %.val3.i23
  %49 = xor i32 %48, -1
  %50 = add i32 %41, %49
  %51 = tail call i32 (ptr, ...) @printf(ptr noundef nonnull dereferenceable(1) @.str.31, i32 noundef %50)
  %putchar = tail call i32 @putchar(i32 10)
  tail call void @Gia_ManStop(ptr noundef %17) #18
  tail call void @Gia_ManStop(ptr noundef %18) #18
  %indvars.iv.next = add nuw nsw i64 %indvars.iv, 1
  %.val19 = load i32, ptr %4, align 8, !tbaa !34
  %.val20 = load ptr, ptr %5, align 8, !tbaa !35
  %52 = getelementptr i8, ptr %.val20, i64 4
  %.val20.val = load i32, ptr %52, align 4, !tbaa !36
  %53 = sub nsw i32 %.val20.val, %.val19
  %54 = sext i32 %53 to i64
  %55 = icmp slt i64 %indvars.iv.next, %54
  br i1 %55, label %9, label %.critedge, !llvm.loop !109

.critedge:                                        ; preds = %9, %10, %1
  ret void
}